target datalayout = "e-m:e-p270:32:32-p271:32:32-p272:64:64-i64:64-i128:128-f80:128-n8:16:32:64-S128"
target triple = "x86_64-pc-linux-gnu"

%struct.SDL_VideoDevice = type { ptr, ptr, ptr, ptr, ptr, ptr, ptr, ptr, ptr, ptr, ptr, ptr, ptr, ptr, ptr, ptr, ptr, ptr, ptr, ptr, ptr, ptr, ptr, ptr, ptr, ptr, ptr, ptr, ptr, ptr, ptr, ptr, ptr, ptr, ptr, ptr, ptr, ptr, ptr, ptr, ptr, ptr, ptr, ptr, ptr, ptr, ptr, ptr, ptr, ptr, ptr, ptr, ptr, ptr, ptr, ptr, ptr, ptr, ptr, ptr, ptr, ptr, ptr, ptr, ptr, ptr, ptr, ptr, ptr, ptr, ptr, ptr, ptr, ptr, ptr, ptr, ptr, ptr, ptr, ptr, ptr, ptr, ptr, ptr, ptr, ptr, ptr, ptr, ptr, ptr, ptr, ptr, ptr, ptr, ptr, ptr, ptr, i64, i8, i8, i8, ptr, i32, ptr, %struct.SDL_Rect, ptr, ptr, i32, ptr, ptr, ptr, ptr, i64, ptr, i8, i32, i32, %struct.anon, ptr, ptr, ptr, ptr, ptr, ptr, %struct.SDL_AtomicInt, %struct.SDL_AtomicInt, i8, %struct.anon.0, ptr, ptr, ptr, ptr, ptr }
%struct.SDL_Rect = type { i32, i32, i32, i32 }
%struct.anon = type { i32, i32, i32, i32, i32, i32, i32, i32, i32, i32, i32, i32, i32, i32, i32, i32, i32, i32, i32, i32, i32, i32, i32, i32, i32, i32, i32, i32, i32, [256 x i8], ptr }
%struct.SDL_AtomicInt = type { i32 }
%struct.anon.0 = type { ptr, ptr, i32, [256 x i8], ptr }
%struct.SDL_VideoData = type { i8, ptr, i32, ptr, ptr, ptr, ptr, i32, %struct.anon.1, ptr, ptr, ptr, ptr, ptr, ptr, ptr, ptr, ptr, ptr, ptr, ptr, ptr, ptr, ptr, ptr, ptr, ptr, ptr, ptr, ptr, ptr, %struct.wl_list, ptr, ptr, ptr, ptr, i32, i32, i8, i8 }
%struct.anon.1 = type { ptr }
%struct.wl_list = type { ptr, ptr }
%struct.SDL_WaylandSeat = type { ptr, ptr, ptr, ptr, ptr, %struct.wl_list, i32, i32, %struct.anon.2, %struct.anon.4, %struct.anon.7, %struct.anon.8, %struct.anon.9 }
%struct.anon.2 = type { ptr, ptr, ptr, ptr, ptr, %struct.SDL_WaylandKeyboardRepeat, i64, i16, i16, i32, i8, %struct.anon.3 }
%struct.SDL_WaylandKeyboardRepeat = type { i32, i32, i32, i8, i8, i32, i64, i64, i64, i32, [8 x i8] }
%struct.anon.3 = type { ptr, ptr, ptr, ptr, i32, i32, i32, i32, i32, i32, i32, i32, i32, i32, i32 }
%struct.anon.4 = type { ptr, ptr, ptr, ptr, ptr, ptr, ptr, ptr, i64, i32, i32, %struct.SDL_Point, i32, %struct.anon.5, %struct.anon.6 }
%struct.SDL_Point = type { i32, i32 }
%struct.anon.5 = type { i32, float, i32, float, i64, i32 }
%struct.anon.6 = type { ptr, ptr, ptr, i64, i64, i32 }
%struct.anon.7 = type { ptr, ptr, i64, %struct.wl_list }
%struct.anon.8 = type { ptr, %struct.SDL_Rect, i8, i8 }
%struct.anon.9 = type { ptr, %struct.wl_list }
%struct.SDL_Window = type { i32, ptr, ptr, i32, i32, i32, i32, i32, i32, i32, i32, float, float, i32, i32, i64, i64, float, i8, i8, i32, i32, %struct.SDL_Rect, %struct.SDL_Rect, %struct.SDL_Rect, i8, i8, i8, %struct.SDL_DisplayMode, %struct.SDL_DisplayMode, %struct.SDL_HDROutputProperties, float, ptr, i8, i8, i8, i8, i8, i8, i8, i8, i8, i32, i32, i32, i32, %struct.SDL_Rect, i32, i8, %struct.SDL_Rect, i32, %struct.SDL_Rect, ptr, ptr, i32, float, i32, i32, ptr, ptr, ptr, ptr, ptr, ptr, ptr, ptr, ptr }
%struct.SDL_DisplayMode = type { i32, i32, i32, i32, float, float, i32, i32, ptr }
%struct.SDL_HDROutputProperties = type { float, float }

@WAYLAND_wl_proxy_marshal_flags = external global ptr, align 8
@WAYLAND_wl_proxy_get_version = external global ptr, align 8

; Function Attrs: inlinehint nounwind uwtable
define internal void @zwp_text_input_v3_commit(ptr noundef %0) #3 {
  %2 = alloca ptr, align 8
  store ptr %0, ptr %2, align 8
  %3 = load ptr, ptr @WAYLAND_wl_proxy_marshal_flags, align 8
  %4 = load ptr, ptr %2, align 8
  %5 = load ptr, ptr @WAYLAND_wl_proxy_get_version, align 8
  %6 = load ptr, ptr %2, align 8
  %7 = call i32 %5(ptr noundef %6)
  %8 = call ptr (ptr, i32, ptr, i32, i32, ...) %3(ptr noundef %4, i32 noundef 7, ptr noundef null, i32 noundef %7, i32 noundef 0)
  ret void
}

; Function Attrs: inlinehint nounwind uwtable
define internal void @zwp_text_input_v3_set_cursor_rectangle(ptr noundef %0, i32 noundef %1, i32 noundef %2, i32 noundef %3, i32 noundef %4) #3 {
  %6 = alloca ptr, align 8
  %7 = alloca i32, align 4
  %8 = alloca i32, align 4
  %9 = alloca i32, align 4
  %10 = alloca i32, align 4
  store ptr %0, ptr %6, align 8
  store i32 %1, ptr %7, align 4
  store i32 %2, ptr %8, align 4
  store i32 %3, ptr %9, align 4
  store i32 %4, ptr %10, align 4
  %11 = load ptr, ptr @WAYLAND_wl_proxy_marshal_flags, align 8
  %12 = load ptr, ptr %6, align 8
  %13 = load ptr, ptr @WAYLAND_wl_proxy_get_version, align 8
  %14 = load ptr, ptr %6, align 8
  %15 = call i32 %13(ptr noundef %14)
  %16 = load i32, ptr %7, align 4
  %17 = load i32, ptr %8, align 4
  %18 = load i32, ptr %9, align 4
  %19 = load i32, ptr %10, align 4
  %20 = call ptr (ptr, i32, ptr, i32, i32, ...) %11(ptr noundef %12, i32 noundef 6, ptr noundef null, i32 noundef %15, i32 noundef 0, i32 noundef %16, i32 noundef %17, i32 noundef %18, i32 noundef %19)
  ret void
}

; Function Attrs: alwaysinline nounwind uwtable
define internal zeroext i1 @SDL_RectsEqual(ptr noundef %0, ptr noundef %1) #4 {
  %3 = alloca ptr, align 8
  %4 = alloca ptr, align 8
  store ptr %0, ptr %3, align 8
  store ptr %1, ptr %4, align 8
  %5 = load ptr, ptr %3, align 8
  %6 = icmp ne ptr %5, null
  br i1 %6, label %7, label %42

7:                                                ; preds = %2
  %8 = load ptr, ptr %4, align 8
  %9 = icmp ne ptr %8, null
  br i1 %9, label %10, label %42

10:                                               ; preds = %7
  %11 = load ptr, ptr %3, align 8
  %12 = getelementptr inbounds nuw %struct.SDL_Rect, ptr %11, i32 0, i32 0
  %13 = load i32, ptr %12, align 4
  %14 = load ptr, ptr %4, align 8
  %15 = getelementptr inbounds nuw %struct.SDL_Rect, ptr %14, i32 0, i32 0
  %16 = load i32, ptr %15, align 4
  %17 = icmp eq i32 %13, %16
  br i1 %17, label %18, label %42

18:                                               ; preds = %10
  %19 = load ptr, ptr %3, align 8
  %20 = getelementptr inbounds nuw %struct.SDL_Rect, ptr %19, i32 0, i32 1
  %21 = load i32, ptr %20, align 4
  %22 = load ptr, ptr %4, align 8
  %23 = getelementptr inbounds nuw %struct.SDL_Rect, ptr %22, i32 0, i32 1
  %24 = load i32, ptr %23, align 4
  %25 = icmp eq i32 %21, %24
  br i1 %25, label %26, label %42

26:                                               ; preds = %18
  %27 = load ptr, ptr %3, align 8
  %28 = getelementptr inbounds nuw %struct.SDL_Rect, ptr %27, i32 0, i32 2
  %29 = load i32, ptr %28, align 4
  %30 = load ptr, ptr %4, align 8
  %31 = getelementptr inbounds nuw %struct.SDL_Rect, ptr %30, i32 0, i32 2
  %32 = load i32, ptr %31, align 4
  %33 = icmp eq i32 %29, %32
  br i1 %33, label %34, label %42

34:                                               ; preds = %26
  %35 = load ptr, ptr %3, align 8
  %36 = getelementptr inbounds nuw %struct.SDL_Rect, ptr %35, i32 0, i32 3
  %37 = load i32, ptr %36, align 4
  %38 = load ptr, ptr %4, align 8
  %39 = getelementptr inbounds nuw %struct.SDL_Rect, ptr %38, i32 0, i32 3
  %40 = load i32, ptr %39, align 4
  %41 = icmp eq i32 %37, %40
  br label %42

42:                                               ; preds = %34, %26, %18, %10, %7, %2
  %43 = phi i1 [ false, %26 ], [ false, %18 ], [ false, %10 ], [ false, %7 ], [ false, %2 ], [ %41, %34 ]
  %44 = select i1 %43, i32 1, i32 0
  %45 = icmp ne i32 %44, 0
  ret i1 %45
}

; Function Attrs: nounwind uwtable
define hidden zeroext i1 @Wayland_UpdateTextInputArea(ptr noundef %0, ptr noundef %1) #0 {
  %3 = alloca ptr, align 8
  %4 = alloca ptr, align 8
  %5 = alloca ptr, align 8
  %6 = alloca ptr, align 8
  store ptr %0, ptr %3, align 8
  store ptr %1, ptr %4, align 8
  call void @llvm.lifetime.start.p0(i64 8, ptr %5) #7
  %7 = load ptr, ptr %3, align 8
  %8 = getelementptr inbounds nuw %struct.SDL_VideoDevice, ptr %7, i32 0, i32 128
  %9 = load ptr, ptr %8, align 8
  store ptr %9, ptr %5, align 8
  %10 = load ptr, ptr %5, align 8
  %11 = getelementptr inbounds nuw %struct.SDL_VideoData, ptr %10, i32 0, i32 18
  %12 = load ptr, ptr %11, align 8
  %13 = icmp ne ptr %12, null
  br i1 %13, label %14, label %87

14:                                               ; preds = %2
  call void @llvm.lifetime.start.p0(i64 8, ptr %6) #7
  %15 = load ptr, ptr %5, align 8
  %16 = getelementptr inbounds nuw %struct.SDL_VideoData, ptr %15, i32 0, i32 31
  %17 = getelementptr inbounds nuw %struct.wl_list, ptr %16, i32 0, i32 1
  %18 = load ptr, ptr %17, align 8
  %19 = getelementptr inbounds i8, ptr %18, i64 -40
  store ptr %19, ptr %6, align 8
  br label %20

20:                                               ; preds = %80, %14
  %21 = load ptr, ptr %6, align 8
  %22 = getelementptr inbounds nuw %struct.SDL_WaylandSeat, ptr %21, i32 0, i32 5
  %23 = load ptr, ptr %5, align 8
  %24 = getelementptr inbounds nuw %struct.SDL_VideoData, ptr %23, i32 0, i32 31
  %25 = icmp ne ptr %22, %24
  br i1 %25, label %26, label %86

26:                                               ; preds = %20
  %27 = load ptr, ptr %6, align 8
  %28 = getelementptr inbounds nuw %struct.SDL_WaylandSeat, ptr %27, i32 0, i32 11
  %29 = getelementptr inbounds nuw %struct.anon.8, ptr %28, i32 0, i32 0
  %30 = load ptr, ptr %29, align 8
  %31 = icmp ne ptr %30, null
  br i1 %31, label %32, label %79

32:                                               ; preds = %26
  %33 = load ptr, ptr %6, align 8
  %34 = getelementptr inbounds nuw %struct.SDL_WaylandSeat, ptr %33, i32 0, i32 8
  %35 = getelementptr inbounds nuw %struct.anon.2, ptr %34, i32 0, i32 3
  %36 = load ptr, ptr %35, align 8
  %37 = load ptr, ptr %4, align 8
  %38 = getelementptr inbounds nuw %struct.SDL_Window, ptr %37, i32 0, i32 59
  %39 = load ptr, ptr %38, align 8
  %40 = icmp eq ptr %36, %39
  br i1 %40, label %41, label %79

41:                                               ; preds = %32
  %42 = load ptr, ptr %4, align 8
  %43 = getelementptr inbounds nuw %struct.SDL_Window, ptr %42, i32 0, i32 49
  %44 = load ptr, ptr %6, align 8
  %45 = getelementptr inbounds nuw %struct.SDL_WaylandSeat, ptr %44, i32 0, i32 11
  %46 = getelementptr inbounds nuw %struct.anon.8, ptr %45, i32 0, i32 1
  %47 = call zeroext i1 @SDL_RectsEqual(ptr noundef %43, ptr noundef %46)
  br i1 %47, label %78, label %48

48:                                               ; preds = %41
  %49 = load ptr, ptr %6, align 8
  %50 = getelementptr inbounds nuw %struct.SDL_WaylandSeat, ptr %49, i32 0, i32 11
  %51 = getelementptr inbounds nuw %struct.anon.8, ptr %50, i32 0, i32 1
  %52 = load ptr, ptr %4, align 8
  %53 = getelementptr inbounds nuw %struct.SDL_Window, ptr %52, i32 0, i32 49
  call void @llvm.memcpy.p0.p0.i64(ptr align 8 %51, ptr align 4 %53, i64 16, i1 false)
  %54 = load ptr, ptr %6, align 8
  %55 = getelementptr inbounds nuw %struct.SDL_WaylandSeat, ptr %54, i32 0, i32 11
  %56 = getelementptr inbounds nuw %struct.anon.8, ptr %55, i32 0, i32 0
  %57 = load ptr, ptr %56, align 8
  %58 = load ptr, ptr %4, align 8
  %59 = getelementptr inbounds nuw %struct.SDL_Window, ptr %58, i32 0, i32 49
  %60 = getelementptr inbounds nuw %struct.SDL_Rect, ptr %59, i32 0, i32 0
  %61 = load i32, ptr %60, align 4
  %62 = load ptr, ptr %4, align 8
  %63 = getelementptr inbounds nuw %struct.SDL_Window, ptr %62, i32 0, i32 49
  %64 = getelementptr inbounds nuw %struct.SDL_Rect, ptr %63, i32 0, i32 1
  %65 = load i32, ptr %64, align 4
  %66 = load ptr, ptr %4, align 8
  %67 = getelementptr inbounds nuw %struct.SDL_Window, ptr %66, i32 0, i32 49
  %68 = getelementptr inbounds nuw %struct.SDL_Rect, ptr %67, i32 0, i32 2
  %69 = load i32, ptr %68, align 4
  %70 = load ptr, ptr %4, align 8
  %71 = getelementptr inbounds nuw %struct.SDL_Window, ptr %70, i32 0, i32 49
  %72 = getelementptr inbounds nuw %struct.SDL_Rect, ptr %71, i32 0, i32 3
  %73 = load i32, ptr %72, align 4
  call void @zwp_text_input_v3_set_cursor_rectangle(ptr noundef %57, i32 noundef %61, i32 noundef %65, i32 noundef %69, i32 noundef %73)
  %74 = load ptr, ptr %6, align 8
  %75 = getelementptr inbounds nuw %struct.SDL_WaylandSeat, ptr %74, i32 0, i32 11
  %76 = getelementptr inbounds nuw %struct.anon.8, ptr %75, i32 0, i32 0
  %77 = load ptr, ptr %76, align 8
  call void @zwp_text_input_v3_commit(ptr noundef %77)
  br label %78

78:                                               ; preds = %48, %41
  br label %79

79:                                               ; preds = %78, %32, %26
  br label %80

80:                                               ; preds = %79
  %81 = load ptr, ptr %6, align 8
  %82 = getelementptr inbounds nuw %struct.SDL_WaylandSeat, ptr %81, i32 0, i32 5
  %83 = getelementptr inbounds nuw %struct.wl_list, ptr %82, i32 0, i32 1
  %84 = load ptr, ptr %83, align 8
  %85 = getelementptr inbounds i8, ptr %84, i64 -40
  store ptr %85, ptr %6, align 8
  br label %20, !llvm.loop !7

86:                                               ; preds = %20
  call void @llvm.lifetime.end.p0(i64 8, ptr %6) #7
  br label %89

87:                                               ; preds = %2
  %88 = load ptr, ptr %4, align 8
  call void @SDL_IME_UpdateTextInputArea(ptr noundef %88)
  br label %89

89:                                               ; preds = %87, %86
  call void @llvm.lifetime.end.p0(i64 8, ptr %5) #7
  ret i1 true
}