; Function Attrs: nounwind uwtable
define hidden noundef zeroext i1 @Wayland_UpdateTextInputArea(ptr noundef readonly captures(none) %0, ptr noundef %1) local_unnamed_addr #0 {
  %3 = getelementptr inbounds nuw i8, ptr %0, i64 1656
  %4 = load ptr, ptr %3, align 8
  %5 = getelementptr inbounds nuw i8, ptr %4, i64 144
  %6 = load ptr, ptr %5, align 8
  %.not = icmp eq ptr %6, null
  br i1 %.not, label %57, label %7

7:                                                ; preds = %2
  %8 = getelementptr inbounds nuw i8, ptr %4, i64 248
  %9 = getelementptr inbounds nuw i8, ptr %4, i64 256
  %.pn23 = load ptr, ptr %9, align 8
  %.not2124 = icmp eq ptr %.pn23, %8
  br i1 %.not2124, label %.loopexit, label %.lr.ph

.lr.ph:                                           ; preds = %7
  %10 = getelementptr inbounds nuw i8, ptr %1, i64 392
  %11 = getelementptr inbounds nuw i8, ptr %1, i64 316
  %12 = getelementptr inbounds nuw i8, ptr %1, i64 320
  %13 = getelementptr inbounds nuw i8, ptr %1, i64 324
  %14 = getelementptr inbounds nuw i8, ptr %1, i64 328
  br label %15

15:                                               ; preds = %.lr.ph, %55
  %.pn25 = phi ptr [ %.pn23, %.lr.ph ], [ %.pn, %55 ]
  %16 = getelementptr inbounds nuw i8, ptr %.pn25, i64 448
  %17 = load ptr, ptr %16, align 8
  %.not22 = icmp eq ptr %17, null
  br i1 %.not22, label %55, label %18

18:                                               ; preds = %15
  %19 = getelementptr inbounds nuw i8, ptr %.pn25, i64 48
  %20 = load ptr, ptr %19, align 8
  %21 = load ptr, ptr %10, align 8
  %22 = icmp eq ptr %20, %21
  br i1 %22, label %23, label %55

23:                                               ; preds = %18
  %24 = getelementptr inbounds nuw i8, ptr %.pn25, i64 456
  %25 = load i32, ptr %11, align 4
  %26 = load i32, ptr %24, align 4
  %27 = icmp eq i32 %25, %26
  br i1 %27, label %28, label %SDL_RectsEqual.exit.thread

28:                                               ; preds = %23
  %29 = load i32, ptr %12, align 4
  %30 = getelementptr inbounds nuw i8, ptr %.pn25, i64 460
  %31 = load i32, ptr %30, align 4
  %32 = icmp eq i32 %29, %31
  br i1 %32, label %33, label %SDL_RectsEqual.exit.thread

33:                                               ; preds = %28
  %34 = load i32, ptr %13, align 4
  %35 = getelementptr inbounds nuw i8, ptr %.pn25, i64 464
  %36 = load i32, ptr %35, align 4
  %37 = icmp eq i32 %34, %36
  br i1 %37, label %SDL_RectsEqual.exit, label %SDL_RectsEqual.exit.thread

SDL_RectsEqual.exit:                              ; preds = %33
  %38 = load i32, ptr %14, align 4
  %39 = getelementptr inbounds nuw i8, ptr %.pn25, i64 468
  %40 = load i32, ptr %39, align 4
  %41 = icmp eq i32 %38, %40
  br i1 %41, label %55, label %SDL_RectsEqual.exit.thread

SDL_RectsEqual.exit.thread:                       ; preds = %23, %28, %33, %SDL_RectsEqual.exit
  tail call void @llvm.memcpy.p0.p0.i64(ptr noundef nonnull align 8 dereferenceable(16) %24, ptr noundef nonnull align 4 dereferenceable(16) %11, i64 16, i1 false)
  %42 = load i32, ptr %11, align 4
  %43 = load i32, ptr %12, align 4
  %44 = load i32, ptr %13, align 4
  %45 = load i32, ptr %14, align 4
  %46 = load ptr, ptr @WAYLAND_wl_proxy_marshal_flags, align 8
  %47 = load ptr, ptr @WAYLAND_wl_proxy_get_version, align 8
  %48 = tail call i32 %47(ptr noundef nonnull %17) #5
  %49 = tail call ptr (ptr, i32, ptr, i32, i32, ...) %46(ptr noundef nonnull %17, i32 noundef 6, ptr noundef null, i32 noundef %48, i32 noundef 0, i32 noundef %42, i32 noundef %43, i32 noundef %44, i32 noundef %45) #5
  %50 = load ptr, ptr %16, align 8
  %51 = load ptr, ptr @WAYLAND_wl_proxy_marshal_flags, align 8
  %52 = load ptr, ptr @WAYLAND_wl_proxy_get_version, align 8
  %53 = tail call i32 %52(ptr noundef %50) #5
  %54 = tail call ptr (ptr, i32, ptr, i32, i32, ...) %51(ptr noundef %50, i32 noundef 7, ptr noundef null, i32 noundef %53, i32 noundef 0) #5
  br label %55

55:                                               ; preds = %15, %18, %SDL_RectsEqual.exit.thread, %SDL_RectsEqual.exit
  %56 = getelementptr inbounds nuw i8, ptr %.pn25, i64 8
  %.pn = load ptr, ptr %56, align 8
  %.not21 = icmp eq ptr %.pn, %8
  br i1 %.not21, label %.loopexit, label %15, !llvm.loop !7

57:                                               ; preds = %2
  tail call void @SDL_IME_UpdateTextInputArea(ptr noundef %1) #5
  br label %.loopexit

.loopexit:                                        ; preds = %55, %7, %57
  ret i1 true
}